target datalayout = "e-m:e-p270:32:32-p271:32:32-p272:64:64-i64:64-i128:128-f80:128-n8:16:32:64-S128"
target triple = "x86_64-unknown-linux-gnu"

@.str.2 = private unnamed_addr constant [128 x i8] c"generated/home/dtcxzyw/WorkSpace/Projects/compilers/llvm-opt-benchmark/bench/libquic/libquic/boringssl/crypto/x509v3/v3_sxnet.c\00", align 1

; Function Attrs: nounwind uwtable
define hidden i32 @SXNET_add_id_ulong(ptr noundef %psx, i64 noundef %lzone, ptr noundef %user, i32 noundef %userlen) #0 {
entry:
  %retval = alloca i32, align 4
  %psx.addr = alloca ptr, align 8
  %lzone.addr = alloca i64, align 8
  %user.addr = alloca ptr, align 8
  %userlen.addr = alloca i32, align 4
  %izone = alloca ptr, align 8
  store ptr %psx, ptr %psx.addr, align 8
  store i64 %lzone, ptr %lzone.addr, align 8
  store ptr %user, ptr %user.addr, align 8
  store i32 %userlen, ptr %userlen.addr, align 4
  store ptr null, ptr %izone, align 8
  %call = call ptr @ASN1_STRING_type_new(i32 noundef 2)
  store ptr %call, ptr %izone, align 8
  %tobool = icmp ne ptr %call, null
  br i1 %tobool, label %lor.lhs.false, label %if.then

lor.lhs.false:                                    ; preds = %entry
  %0 = load ptr, ptr %izone, align 8
  %1 = load i64, ptr %lzone.addr, align 8
  %call1 = call i32 @ASN1_INTEGER_set(ptr noundef %0, i64 noundef %1)
  %tobool2 = icmp ne i32 %call1, 0
  br i1 %tobool2, label %if.end, label %if.then

if.then:                                          ; preds = %lor.lhs.false, %entry
  call void @ERR_put_error(i32 noundef 20, i32 noundef 0, i32 noundef 65, ptr noundef @.str.2, i32 noundef 174)
  %2 = load ptr, ptr %izone, align 8
  call void @ASN1_STRING_free(ptr noundef %2)
  store i32 0, ptr %retval, align 4
  br label %return

if.end:                                           ; preds = %lor.lhs.false
  %3 = load ptr, ptr %psx.addr, align 8
  %4 = load ptr, ptr %izone, align 8
  %5 = load ptr, ptr %user.addr, align 8
  %6 = load i32, ptr %userlen.addr, align 4
  %call3 = call i32 @SXNET_add_id_INTEGER(ptr noundef %3, ptr noundef %4, ptr noundef %5, i32 noundef %6)
  store i32 %call3, ptr %retval, align 4
  br label %return

return:                                           ; preds = %if.end, %if.then
  %7 = load i32, ptr %retval, align 4
  ret i32 %7
}