; Function Attrs: nounwind uwtable
define hidden range(i32 0, 2) i32 @SXNET_add_id_ulong(ptr noundef %psx, i64 noundef %lzone, ptr noundef %user, i32 noundef %userlen) local_unnamed_addr #0 {
entry:
  %call = tail call ptr @ASN1_STRING_type_new(i32 noundef 2) #4
  %tobool.not = icmp eq ptr %call, null
  br i1 %tobool.not, label %if.then, label %lor.lhs.false

lor.lhs.false:                                    ; preds = %entry
  %call1 = tail call i32 @ASN1_INTEGER_set(ptr noundef nonnull %call, i64 noundef %lzone) #4
  %tobool2.not = icmp eq i32 %call1, 0
  br i1 %tobool2.not, label %if.then, label %if.end

if.then:                                          ; preds = %lor.lhs.false, %entry
  tail call void @ERR_put_error(i32 noundef 20, i32 noundef 0, i32 noundef 65, ptr noundef nonnull @.str.2, i32 noundef 174) #4
  tail call void @ASN1_STRING_free(ptr noundef %call) #4
  br label %return

if.end:                                           ; preds = %lor.lhs.false
  %call3 = tail call i32 @SXNET_add_id_INTEGER(ptr noundef %psx, ptr noundef nonnull %call, ptr noundef %user, i32 noundef %userlen)
  br label %return

return:                                           ; preds = %if.end, %if.then
  %retval.0 = phi i32 [ %call3, %if.end ], [ 0, %if.then ]
  ret i32 %retval.0
}